target datalayout = "e-m:e-p270:32:32-p271:32:32-p272:64:64-i64:64-i128:128-f80:128-n8:16:32:64-S128"
target triple = "x86_64-pc-linux-gnu"

%"struct.(anonymous namespace)::DumpVisitor" = type <{ i32, i8, [3 x i8] }>
%"struct.(anonymous namespace)::DumpVisitor::CtorArgPrinter" = type { ptr }
%"class.(anonymous namespace)::itanium_demangle::Node.base" = type <{ ptr, i8, i16 }>
%"class.(anonymous namespace)::itanium_demangle::ExpandedSpecialSubstitution" = type { %"class.(anonymous namespace)::itanium_demangle::Node.base", i32 }

@stderr = external global ptr, align 8
@.str.8 = private unnamed_addr constant [4 x i8] c"%s(\00", align 1
@.str.9 = private unnamed_addr constant [2 x i8] c")\00", align 1
@.str.86 = private unnamed_addr constant [20 x i8] c"SpecialSubstitution\00", align 1

; Function Attrs: mustprogress uwtable
define internal void @_ZNK12_GLOBAL__N_116itanium_demangle19SpecialSubstitution5matchINS_11DumpVisitor14CtorArgPrinterEEEvT_(ptr noundef nonnull align 8 dereferenceable(16) %0, ptr %1) #3 align 2 {
  %3 = alloca %"struct.(anonymous namespace)::DumpVisitor::CtorArgPrinter", align 8
  %4 = alloca ptr, align 8
  %5 = getelementptr inbounds nuw %"struct.(anonymous namespace)::DumpVisitor::CtorArgPrinter", ptr %3, i32 0, i32 0
  store ptr %1, ptr %5, align 8
  store ptr %0, ptr %4, align 8, !tbaa !114
  %6 = load ptr, ptr %4, align 8
  %7 = getelementptr inbounds nuw %"class.(anonymous namespace)::itanium_demangle::ExpandedSpecialSubstitution", ptr %6, i32 0, i32 1
  %8 = load i32, ptr %7, align 4, !tbaa !596
  call void @_ZN12_GLOBAL__N_111DumpVisitor14CtorArgPrinterclINS_16itanium_demangle14SpecialSubKindEJEEEvT_DpT0_(ptr noundef nonnull align 8 dereferenceable(8) %3, i32 noundef %8)
  ret void
}

; Function Attrs: mustprogress nounwind uwtable
define internal noundef ptr @_ZN12_GLOBAL__N_116itanium_demangle8NodeKindINS0_19SpecialSubstitutionEE4nameEv() #6 align 2 {
  ret ptr @.str.86
}

; Function Attrs: mustprogress uwtable
define internal void @_ZN12_GLOBAL__N_111DumpVisitorclINS_16itanium_demangle19SpecialSubstitutionEEEvPKT_(ptr noundef nonnull align 4 dereferenceable(5) %0, ptr noundef %1) #3 align 2 {
  %3 = alloca ptr, align 8
  %4 = alloca ptr, align 8
  %5 = alloca %"struct.(anonymous namespace)::DumpVisitor::CtorArgPrinter", align 8
  store ptr %0, ptr %3, align 8, !tbaa !9
  store ptr %1, ptr %4, align 8, !tbaa !114
  %6 = load ptr, ptr %3, align 8
  %7 = getelementptr inbounds nuw %"struct.(anonymous namespace)::DumpVisitor", ptr %6, i32 0, i32 0
  %8 = load i32, ptr %7, align 4, !tbaa !11
  %9 = add i32 %8, 2
  store i32 %9, ptr %7, align 4, !tbaa !11
  %10 = load ptr, ptr @stderr, align 8, !tbaa !242
  %11 = call noundef ptr @_ZN12_GLOBAL__N_116itanium_demangle8NodeKindINS0_19SpecialSubstitutionEE4nameEv()
  %12 = call i32 (ptr, ptr, ...) @fprintf(ptr noundef %10, ptr noundef @.str.8, ptr noundef %11) #19
  %13 = load ptr, ptr %4, align 8, !tbaa !114
  %14 = getelementptr inbounds nuw %"struct.(anonymous namespace)::DumpVisitor::CtorArgPrinter", ptr %5, i32 0, i32 0
  store ptr %6, ptr %14, align 8, !tbaa !9
  %15 = getelementptr inbounds nuw %"struct.(anonymous namespace)::DumpVisitor::CtorArgPrinter", ptr %5, i32 0, i32 0
  %16 = load ptr, ptr %15, align 8
  call void @_ZNK12_GLOBAL__N_116itanium_demangle19SpecialSubstitution5matchINS_11DumpVisitor14CtorArgPrinterEEEvT_(ptr noundef nonnull align 8 dereferenceable(16) %13, ptr %16)
  %17 = load ptr, ptr @stderr, align 8, !tbaa !242
  %18 = call i32 (ptr, ptr, ...) @fprintf(ptr noundef %17, ptr noundef @.str.9) #19
  %19 = getelementptr inbounds nuw %"struct.(anonymous namespace)::DumpVisitor", ptr %6, i32 0, i32 0
  %20 = load i32, ptr %19, align 4, !tbaa !11
  %21 = sub i32 %20, 2
  store i32 %21, ptr %19, align 4, !tbaa !11
  ret void
}