; Function Attrs: cold mustprogress nofree nounwind uwtable
define internal fastcc void @_ZN12_GLOBAL__N_111DumpVisitorclINS_16itanium_demangle19SpecialSubstitutionEEEvPKT_(ptr noundef nonnull align 4 captures(none) dereferenceable(5) %0, ptr noundef readonly captures(none) %1) unnamed_addr #21 align 2 {
  %3 = load i32, ptr %0, align 4, !tbaa !4
  %4 = add i32 %3, 2
  store i32 %4, ptr %0, align 4, !tbaa !4
  %5 = load ptr, ptr @stderr, align 8, !tbaa !11
  %6 = tail call i32 (ptr, ptr, ...) @fprintf(ptr noundef %5, ptr noundef nonnull @.str.8, ptr noundef nonnull @.str.86) #36
  %7 = getelementptr i8, ptr %1, i64 12
  %.val = load i32, ptr %7, align 4, !tbaa !346
  tail call fastcc void @_ZN12_GLOBAL__N_111DumpVisitor14CtorArgPrinterclINS_16itanium_demangle14SpecialSubKindEJEEEvT_DpT0_(i32 noundef %.val)
  %8 = load ptr, ptr @stderr, align 8, !tbaa !11
  %fputc = tail call i32 @fputc(i32 41, ptr %8)
  %9 = load i32, ptr %0, align 4, !tbaa !4
  %10 = add i32 %9, -2
  store i32 %10, ptr %0, align 4, !tbaa !4
  ret void
}